target datalayout = "e-m:e-p270:32:32-p271:32:32-p272:64:64-i64:64-i128:128-f80:128-n8:16:32:64-S128"
target triple = "x86_64-pc-linux-gnu"

%struct.__ncnn_allocator_t = type { ptr, ptr, ptr }
%"class.ncnn::Mat" = type { ptr, ptr, i64, i32, ptr, i32, i32, i32, i32, i32, i64 }

; Function Attrs: mustprogress uwtable
define hidden ptr @ncnn_mat_create_1d_elem(i32 noundef %0, i64 noundef %1, i32 noundef %2, ptr noundef %3) #1 personality ptr @__gxx_personality_v0 {
  %5 = alloca ptr, align 8
  %6 = alloca i32, align 4
  %7 = alloca i64, align 8
  %8 = alloca i32, align 4
  %9 = alloca ptr, align 8
  %10 = alloca i32, align 4
  %11 = alloca i64, align 8
  %12 = alloca i32, align 4
  %13 = alloca ptr, align 8
  %14 = alloca ptr, align 8
  %15 = alloca i32, align 4
  store i32 %0, ptr %10, align 4
  store i64 %1, ptr %11, align 8
  store i32 %2, ptr %12, align 4
  store ptr %3, ptr %13, align 8
  %16 = call noalias noundef nonnull ptr @_Znwm(i64 noundef 72) #13
  %17 = load i32, ptr %10, align 4
  %18 = load i64, ptr %11, align 8
  %19 = load i32, ptr %12, align 4
  %20 = load ptr, ptr %13, align 8
  %21 = icmp ne ptr %20, null
  br i1 %21, label %22, label %26

22:                                               ; preds = %4
  %23 = load ptr, ptr %13, align 8
  %24 = getelementptr inbounds nuw %struct.__ncnn_allocator_t, ptr %23, i32 0, i32 0
  %25 = load ptr, ptr %24, align 8
  br label %27

26:                                               ; preds = %4
  br label %27

27:                                               ; preds = %26, %22
  %28 = phi ptr [ %25, %22 ], [ null, %26 ]
  store ptr %16, ptr %5, align 8
  store i32 %17, ptr %6, align 4
  store i64 %18, ptr %7, align 8
  store i32 %19, ptr %8, align 4
  store ptr %28, ptr %9, align 8
  %29 = load ptr, ptr %5, align 8
  store ptr null, ptr %29, align 8
  %30 = getelementptr inbounds nuw %"class.ncnn::Mat", ptr %29, i32 0, i32 1
  store ptr null, ptr %30, align 8
  %31 = getelementptr inbounds nuw %"class.ncnn::Mat", ptr %29, i32 0, i32 2
  store i64 0, ptr %31, align 8
  %32 = getelementptr inbounds nuw %"class.ncnn::Mat", ptr %29, i32 0, i32 3
  store i32 0, ptr %32, align 8
  %33 = getelementptr inbounds nuw %"class.ncnn::Mat", ptr %29, i32 0, i32 4
  store ptr null, ptr %33, align 8
  %34 = getelementptr inbounds nuw %"class.ncnn::Mat", ptr %29, i32 0, i32 5
  store i32 0, ptr %34, align 8
  %35 = getelementptr inbounds nuw %"class.ncnn::Mat", ptr %29, i32 0, i32 6
  store i32 0, ptr %35, align 4
  %36 = getelementptr inbounds nuw %"class.ncnn::Mat", ptr %29, i32 0, i32 7
  store i32 0, ptr %36, align 8
  %37 = getelementptr inbounds nuw %"class.ncnn::Mat", ptr %29, i32 0, i32 8
  store i32 0, ptr %37, align 4
  %38 = getelementptr inbounds nuw %"class.ncnn::Mat", ptr %29, i32 0, i32 9
  store i32 0, ptr %38, align 8
  %39 = getelementptr inbounds nuw %"class.ncnn::Mat", ptr %29, i32 0, i32 10
  store i64 0, ptr %39, align 8
  %40 = load i32, ptr %6, align 4
  %41 = load i64, ptr %7, align 8
  %42 = load i32, ptr %8, align 4
  %43 = load ptr, ptr %9, align 8
  invoke void @_ZN4ncnn3Mat6createEimiPNS_9AllocatorE(ptr noundef nonnull align 8 dereferenceable(72) %29, i32 noundef %40, i64 noundef %41, i32 noundef %42, ptr noundef %43)
          to label %44 unwind label %46

44:                                               ; preds = %27
  br label %45

45:                                               ; preds = %44
  ret ptr %16

46:                                               ; preds = %27
  %47 = landingpad { ptr, i32 }
          cleanup
  %48 = extractvalue { ptr, i32 } %47, 0
  store ptr %48, ptr %14, align 8
  %49 = extractvalue { ptr, i32 } %47, 1
  store i32 %49, ptr %15, align 4
  call void @_ZdlPvm(ptr noundef %16, i64 noundef 72) #14
  br label %50

50:                                               ; preds = %46
  %51 = load ptr, ptr %14, align 8
  %52 = load i32, ptr %15, align 4
  %53 = insertvalue { ptr, i32 } poison, ptr %51, 0
  %54 = insertvalue { ptr, i32 } %53, i32 %52, 1
  resume { ptr, i32 } %54
}